; Function Attrs: nounwind uwtable
define dso_local noundef i32 @anetBlock(ptr noundef %err, i32 noundef %fd) local_unnamed_addr #0 {
entry:
  %call.i = tail call i32 (i32, i32, ...) @fcntl64(i32 noundef %fd, i32 noundef 3) #10
  %cmp.i = icmp eq i32 %call.i, -1
  br i1 %cmp.i, label %return.sink.split.i, label %if.end.i

if.end.i:                                         ; preds = %entry
  %0 = and i32 %call.i, 2048
  %1 = icmp eq i32 %0, 0
  br i1 %1, label %anetSetBlock.exit, label %if.end11.i

if.end11.i:                                       ; preds = %if.end.i
  %and14.i = and i32 %call.i, -2049
  %call16.i = tail call i32 (i32, i32, ...) @fcntl64(i32 noundef %fd, i32 noundef 4, i32 noundef %and14.i) #10
  %cmp17.i = icmp eq i32 %call16.i, -1
  br i1 %cmp17.i, label %return.sink.split.i, label %anetSetBlock.exit

return.sink.split.i:                              ; preds = %if.end11.i, %entry
  %.str.1.sink.i = phi ptr [ @.str, %entry ], [ @.str.1, %if.end11.i ]
  %call19.i = tail call ptr @__errno_location() #11
  %2 = load i32, ptr %call19.i, align 4
  %call20.i = tail call ptr @strerror(i32 noundef %2) #10
  tail call void (ptr, ptr, ...) @anetSetError(ptr noundef %err, ptr noundef nonnull %.str.1.sink.i, ptr noundef %call20.i)
  br label %anetSetBlock.exit

anetSetBlock.exit:                                ; preds = %if.end.i, %if.end11.i, %return.sink.split.i
  %retval.0.i = phi i32 [ 0, %if.end.i ], [ 0, %if.end11.i ], [ -1, %return.sink.split.i ]
  ret i32 %retval.0.i
}